target datalayout = "e-m:e-p270:32:32-p271:32:32-p272:64:64-i64:64-i128:128-f80:128-n8:16:32:64-S128"
target triple = "x86_64-pc-linux-gnu"

; Function Attrs: mustprogress nounwind uwtable
define hidden noundef ptr @_ZN18ZBarrierSetRuntime45load_barrier_on_weak_oop_field_preloaded_addrEv() #1 align 2 {
  ret ptr @_ZN18ZBarrierSetRuntime40load_barrier_on_weak_oop_field_preloadedEP7oopDescPS1_
}

; Function Attrs: mustprogress nounwind uwtable
define hidden noundef ptr @_ZN18ZBarrierSetRuntime48load_barrier_on_phantom_oop_field_preloaded_addrEv() #1 align 2 {
  ret ptr @_ZN18ZBarrierSetRuntime43load_barrier_on_phantom_oop_field_preloadedEP7oopDescPS1_
}

; Function Attrs: mustprogress nounwind uwtable
define hidden noundef ptr @_ZN18ZBarrierSetRuntime40load_barrier_on_oop_field_preloaded_addrEv() #1 align 2 {
  ret ptr @_ZN18ZBarrierSetRuntime35load_barrier_on_oop_field_preloadedEP7oopDescPS1_
}

; Function Attrs: mustprogress nounwind uwtable
define hidden noundef ptr @_ZN18ZBarrierSetRuntime58no_keepalive_load_barrier_on_weak_oop_field_preloaded_addrEv() #1 align 2 {
  ret ptr @_ZN18ZBarrierSetRuntime53no_keepalive_load_barrier_on_weak_oop_field_preloadedEP7oopDescPS1_
}

; Function Attrs: mustprogress nounwind uwtable
define hidden noundef ptr @_ZN18ZBarrierSetRuntime61no_keepalive_load_barrier_on_phantom_oop_field_preloaded_addrEv() #1 align 2 {
  ret ptr @_ZN18ZBarrierSetRuntime56no_keepalive_load_barrier_on_phantom_oop_field_preloadedEP7oopDescPS1_
}

; Function Attrs: mustprogress nounwind uwtable
define hidden noundef ptr @_ZN18ZBarrierSetRuntime40load_barrier_on_oop_field_preloaded_addrEm(i64 noundef %0) #1 align 2 {
  %2 = alloca ptr, align 8
  %3 = alloca i64, align 8
  store i64 %0, ptr %3, align 8
  %4 = load i64, ptr %3, align 8
  %5 = and i64 %4, 4096
  %6 = icmp ne i64 %5, 0
  br i1 %6, label %7, label %21

7:                                                ; preds = %1
  %8 = load i64, ptr %3, align 8
  %9 = and i64 %8, 65536
  %10 = icmp ne i64 %9, 0
  br i1 %10, label %11, label %13

11:                                               ; preds = %7
  %12 = call noundef ptr @_ZN18ZBarrierSetRuntime61no_keepalive_load_barrier_on_phantom_oop_field_preloaded_addrEv()
  store ptr %12, ptr %2, align 8
  br label %35

13:                                               ; preds = %7
  %14 = load i64, ptr %3, align 8
  %15 = and i64 %14, 32768
  %16 = icmp ne i64 %15, 0
  br i1 %16, label %17, label %19

17:                                               ; preds = %13
  %18 = call noundef ptr @_ZN18ZBarrierSetRuntime58no_keepalive_load_barrier_on_weak_oop_field_preloaded_addrEv()
  store ptr %18, ptr %2, align 8
  br label %35

19:                                               ; preds = %13
  %20 = call noundef ptr @_ZN18ZBarrierSetRuntime40load_barrier_on_oop_field_preloaded_addrEv()
  store ptr %20, ptr %2, align 8
  br label %35

21:                                               ; preds = %1
  %22 = load i64, ptr %3, align 8
  %23 = and i64 %22, 65536
  %24 = icmp ne i64 %23, 0
  br i1 %24, label %25, label %27

25:                                               ; preds = %21
  %26 = call noundef ptr @_ZN18ZBarrierSetRuntime48load_barrier_on_phantom_oop_field_preloaded_addrEv()
  store ptr %26, ptr %2, align 8
  br label %35

27:                                               ; preds = %21
  %28 = load i64, ptr %3, align 8
  %29 = and i64 %28, 32768
  %30 = icmp ne i64 %29, 0
  br i1 %30, label %31, label %33

31:                                               ; preds = %27
  %32 = call noundef ptr @_ZN18ZBarrierSetRuntime45load_barrier_on_weak_oop_field_preloaded_addrEv()
  store ptr %32, ptr %2, align 8
  br label %35

33:                                               ; preds = %27
  %34 = call noundef ptr @_ZN18ZBarrierSetRuntime40load_barrier_on_oop_field_preloaded_addrEv()
  store ptr %34, ptr %2, align 8
  br label %35

35:                                               ; preds = %33, %31, %25, %19, %17, %11
  %36 = load ptr, ptr %2, align 8
  ret ptr %36
}