; Function Attrs: mustprogress nofree norecurse nosync nounwind willreturn memory(none) uwtable
define hidden noundef nonnull ptr @_ZN18ZBarrierSetRuntime40load_barrier_on_oop_field_preloaded_addrEm(i64 noundef %0) local_unnamed_addr #1 align 2 {
  %2 = and i64 %0, 4096
  %.not = icmp eq i64 %2, 0
  %3 = and i64 %0, 65536
  %.not5 = icmp eq i64 %3, 0
  br i1 %.not, label %7, label %4

4:                                                ; preds = %1
  br i1 %.not5, label %5, label %10

5:                                                ; preds = %4
  %6 = and i64 %0, 32768
  %.not8 = icmp eq i64 %6, 0
  %spec.select = select i1 %.not8, ptr @_ZN18ZBarrierSetRuntime35load_barrier_on_oop_field_preloadedEP7oopDescPS1_, ptr @_ZN18ZBarrierSetRuntime53no_keepalive_load_barrier_on_weak_oop_field_preloadedEP7oopDescPS1_
  br label %10

7:                                                ; preds = %1
  br i1 %.not5, label %8, label %10

8:                                                ; preds = %7
  %9 = and i64 %0, 32768
  %.not6 = icmp eq i64 %9, 0
  %spec.select9 = select i1 %.not6, ptr @_ZN18ZBarrierSetRuntime35load_barrier_on_oop_field_preloadedEP7oopDescPS1_, ptr @_ZN18ZBarrierSetRuntime40load_barrier_on_weak_oop_field_preloadedEP7oopDescPS1_
  br label %10

10:                                               ; preds = %8, %5, %7, %4
  %.0 = phi ptr [ @_ZN18ZBarrierSetRuntime56no_keepalive_load_barrier_on_phantom_oop_field_preloadedEP7oopDescPS1_, %4 ], [ @_ZN18ZBarrierSetRuntime43load_barrier_on_phantom_oop_field_preloadedEP7oopDescPS1_, %7 ], [ %spec.select, %5 ], [ %spec.select9, %8 ]
  ret ptr %.0
}